   1               		.file	"stepper.c"
   2               	__SP_H__ = 0x3e
   3               	__SP_L__ = 0x3d
   4               	__SREG__ = 0x3f
   5               	__RAMPZ__ = 0x3b
   6               	__tmp_reg__ = 0
   7               	__zero_reg__ = 1
   8               		.text
   9               	.Ltext0:
  10               		.cfi_sections	.debug_frame
  11               	.global	init_stepper
  13               	init_stepper:
  14               	.LFB22:
  15               		.file 1 "src/stepper.c"
   1:src/stepper.c **** #include "stepper.h"
   2:src/stepper.c **** 
   3:src/stepper.c **** static int stepper_rpm[2] = {60, 60};
   4:src/stepper.c **** 
   5:src/stepper.c **** #define PIN_STEPPER1_DIR            16  // PC0
   6:src/stepper.c **** #define PIN_STEPPER1_STEP           17  // PC1
   7:src/stepper.c **** #define PIN_STEPPER1_EN             18  // PC2
   8:src/stepper.c **** 
   9:src/stepper.c **** #define PIN_STEPPER2_DIR            19  // PC3
  10:src/stepper.c **** #define PIN_STEPPER2_STEP           20  // PC4
  11:src/stepper.c **** #define PIN_STEPPER2_EN             21  // PC5
  12:src/stepper.c **** 
  13:src/stepper.c **** #define rtn_dir(num) (num == 1)? PIN_STEPPER1_DIR: PIN_STEPPER2_DIR
  14:src/stepper.c **** #define rtn_step(num) (num == 1)? PIN_STEPPER1_STEP: PIN_STEPPER2_STEP
  15:src/stepper.c **** #define rtn_en(num) (num == 1)? PIN_STEPPER1_EN: PIN_STEPPER2_EN
  16:src/stepper.c **** 
  17:src/stepper.c **** /*
  18:src/stepper.c ****  * Function:    unsigned char init_stepper()
  19:src/stepper.c ****  * Description: init the stepper pins
  20:src/stepper.c ****  */
  21:src/stepper.c **** unsigned char init_stepper(void) {
  16               		.loc 1 21 34 view -0
  17               		.cfi_startproc
  18               	/* prologue: function */
  19               	/* frame size = 0 */
  20               	/* stack size = 0 */
  21               	.L__stack_usage = 0
  22:src/stepper.c ****     
  23:src/stepper.c ****     gpio_register_pin(PIN_STEPPER1_DIR, GPIO_DIRECTION_OUTPUT, false);
  22               		.loc 1 23 5 view .LVU1
  23 0000 40E0      		ldi r20,0
  24 0002 61E0      		ldi r22,lo8(1)
  25 0004 80E1      		ldi r24,lo8(16)
  26 0006 0E94 0000 		call gpio_register_pin
  27               	.LVL0:
  24:src/stepper.c ****     gpio_register_pin(PIN_STEPPER1_STEP, GPIO_DIRECTION_OUTPUT, false);
  28               		.loc 1 24 5 view .LVU2
  29 000a 40E0      		ldi r20,0
  30 000c 61E0      		ldi r22,lo8(1)
  31 000e 81E1      		ldi r24,lo8(17)
  32 0010 0E94 0000 		call gpio_register_pin
  33               	.LVL1:
  25:src/stepper.c ****     gpio_register_pin(PIN_STEPPER1_EN, GPIO_DIRECTION_OUTPUT, false);
  34               		.loc 1 25 5 view .LVU3
  35 0014 40E0      		ldi r20,0
  36 0016 61E0      		ldi r22,lo8(1)
  37 0018 82E1      		ldi r24,lo8(18)
  38 001a 0E94 0000 		call gpio_register_pin
  39               	.LVL2:
  26:src/stepper.c **** 
  27:src/stepper.c ****     gpio_register_pin(PIN_STEPPER2_DIR, GPIO_DIRECTION_OUTPUT, false);
  40               		.loc 1 27 5 view .LVU4
  41 001e 40E0      		ldi r20,0
  42 0020 61E0      		ldi r22,lo8(1)
  43 0022 83E1      		ldi r24,lo8(19)
  44 0024 0E94 0000 		call gpio_register_pin
  45               	.LVL3:
  28:src/stepper.c ****     gpio_register_pin(PIN_STEPPER2_STEP, GPIO_DIRECTION_OUTPUT, false);
  46               		.loc 1 28 5 view .LVU5
  47 0028 40E0      		ldi r20,0
  48 002a 61E0      		ldi r22,lo8(1)
  49 002c 84E1      		ldi r24,lo8(20)
  50 002e 0E94 0000 		call gpio_register_pin
  51               	.LVL4:
  29:src/stepper.c ****     gpio_register_pin(PIN_STEPPER2_EN, GPIO_DIRECTION_OUTPUT, false);
  52               		.loc 1 29 5 view .LVU6
  53 0032 40E0      		ldi r20,0
  54 0034 61E0      		ldi r22,lo8(1)
  55 0036 85E1      		ldi r24,lo8(21)
  56 0038 0E94 0000 		call gpio_register_pin
  57               	.LVL5:
  30:src/stepper.c **** 
  31:src/stepper.c ****     // disable drivers
  32:src/stepper.c ****     /*enable_stepper(HIGH, 1);
  33:src/stepper.c ****     enable_stepper(HIGH, 2);*/
  34:src/stepper.c **** 
  35:src/stepper.c ****     return 1;
  58               		.loc 1 35 5 view .LVU7
  36:src/stepper.c **** 
  37:src/stepper.c **** } // end of init_stepper()
  59               		.loc 1 37 1 is_stmt 0 view .LVU8
  60 003c 81E0      		ldi r24,lo8(1)
  61               	/* epilogue start */
  62 003e 0895      		ret
  63               		.cfi_endproc
  64               	.LFE22:
  66               	.global	enable_stepper
  68               	enable_stepper:
  69               	.LVL6:
  70               	.LFB23:
  38:src/stepper.c **** 
  39:src/stepper.c **** /*
  40:src/stepper.c ****  *  Function:       void enable_stepper(uint8_t state, uint8_t num)
  41:src/stepper.c ****  *  Description:    enable or disable the stepper driver
  42:src/stepper.c ****  */
  43:src/stepper.c **** void enable_stepper(uint8_t state, uint8_t num) {
  71               		.loc 1 43 49 is_stmt 1 view -0
  72               		.cfi_startproc
  73               	/* prologue: function */
  74               	/* frame size = 0 */
  75               	/* stack size = 0 */
  76               	.L__stack_usage = 0
  44:src/stepper.c **** 
  45:src/stepper.c ****     gpio_write_pin(rtn_en(num), state);
  77               		.loc 1 45 5 view .LVU10
  78 0040 91E0      		ldi r25,lo8(1)
  79 0042 8111      		cpse r24,__zero_reg__
  80 0044 00C0      		rjmp .L3
  81 0046 90E0      		ldi r25,0
  82               	.L3:
  83 0048 85E1      		ldi r24,lo8(21)
  84               	.LVL7:
  85               		.loc 1 45 5 is_stmt 0 view .LVU11
  86 004a 6130      		cpi r22,lo8(1)
  87 004c 01F4      		brne .L4
  88 004e 82E1      		ldi r24,lo8(18)
  89               	.L4:
  90               		.loc 1 45 5 discriminator 4 view .LVU12
  91 0050 692F      		mov r22,r25
  92               	.LVL8:
  93               		.loc 1 45 5 discriminator 4 view .LVU13
  94 0052 0C94 0000 		jmp gpio_write_pin
  95               	.LVL9:
  96               		.cfi_endproc
  97               	.LFE23:
  99               	.global	set_rpm_stepper
 101               	set_rpm_stepper:
 102               	.LVL10:
 103               	.LFB24:
  46:src/stepper.c **** 
  47:src/stepper.c **** } // end of enable_stepper()
  48:src/stepper.c **** 
  49:src/stepper.c **** /*
  50:src/stepper.c ****  * Function:        void set_rpm_stepper(unsigned int rpm, uint8_t num)
  51:src/stepper.c ****  * Description:     set the rpm of the stepper
  52:src/stepper.c ****  */
  53:src/stepper.c **** void set_rpm_stepper(int rpm, uint8_t num) {
 104               		.loc 1 53 44 is_stmt 1 view -0
 105               		.cfi_startproc
 106               	/* prologue: function */
 107               	/* frame size = 0 */
 108               	/* stack size = 0 */
 109               	.L__stack_usage = 0
  54:src/stepper.c **** 
  55:src/stepper.c ****     stepper_rpm[num-1] = rpm;
 110               		.loc 1 55 5 view .LVU15
 111               		.loc 1 55 24 is_stmt 0 view .LVU16
 112 0056 262F      		mov r18,r22
 113 0058 2150      		subi r18,1
 114 005a 330B      		sbc r19,r19
 115 005c F901      		movw r30,r18
 116 005e EE0F      		lsl r30
 117 0060 FF1F      		rol r31
 118 0062 E050      		subi r30,lo8(-(stepper_rpm))
 119 0064 F040      		sbci r31,hi8(-(stepper_rpm))
 120 0066 9183      		std Z+1,r25
 121 0068 8083      		st Z,r24
 122               	/* epilogue start */
  56:src/stepper.c **** 
  57:src/stepper.c **** } // end of set_rpm_stepper()
 123               		.loc 1 57 1 view .LVU17
 124 006a 0895      		ret
 125               		.cfi_endproc
 126               	.LFE24:
 128               	.global	move_stepper
 130               	move_stepper:
 131               	.LVL11:
 132               	.LFB25:
  58:src/stepper.c **** 
  59:src/stepper.c **** /*
  60:src/stepper.c ****  * Function:        void move_stepper(unsigned int steps, unsigned char dir, uint8_t num)
  61:src/stepper.c ****  * Description:     move the stepper for steps at a certain direction 
  62:src/stepper.c ****  */
  63:src/stepper.c **** void move_stepper(unsigned int steps, unsigned char dir, uint8_t num) {
 133               		.loc 1 63 71 is_stmt 1 view -0
 134               		.cfi_startproc
 135               		.loc 1 63 71 is_stmt 0 view .LVU19
 136 006c 8F92      		push r8
 137               	.LCFI0:
 138               		.cfi_def_cfa_offset 3
 139               		.cfi_offset 8, -2
 140 006e 9F92      		push r9
 141               	.LCFI1:
 142               		.cfi_def_cfa_offset 4
 143               		.cfi_offset 9, -3
 144 0070 AF92      		push r10
 145               	.LCFI2:
 146               		.cfi_def_cfa_offset 5
 147               		.cfi_offset 10, -4
 148 0072 BF92      		push r11
 149               	.LCFI3:
 150               		.cfi_def_cfa_offset 6
 151               		.cfi_offset 11, -5
 152 0074 DF92      		push r13
 153               	.LCFI4:
 154               		.cfi_def_cfa_offset 7
 155               		.cfi_offset 13, -6
 156 0076 EF92      		push r14
 157               	.LCFI5:
 158               		.cfi_def_cfa_offset 8
 159               		.cfi_offset 14, -7
 160 0078 FF92      		push r15
 161               	.LCFI6:
 162               		.cfi_def_cfa_offset 9
 163               		.cfi_offset 15, -8
 164 007a 0F93      		push r16
 165               	.LCFI7:
 166               		.cfi_def_cfa_offset 10
 167               		.cfi_offset 16, -9
 168 007c 1F93      		push r17
 169               	.LCFI8:
 170               		.cfi_def_cfa_offset 11
 171               		.cfi_offset 17, -10
 172 007e CF93      		push r28
 173               	.LCFI9:
 174               		.cfi_def_cfa_offset 12
 175               		.cfi_offset 28, -11
 176 0080 DF93      		push r29
 177               	.LCFI10:
 178               		.cfi_def_cfa_offset 13
 179               		.cfi_offset 29, -12
 180               	/* prologue: function */
 181               	/* frame size = 0 */
 182               	/* stack size = 11 */
 183               	.L__stack_usage = 11
 184 0082 8C01      		movw r16,r24
 185 0084 D62F      		mov r29,r22
 186 0086 C42F      		mov r28,r20
  64:src/stepper.c ****     /*
  65:src/stepper.c **** 
  66:src/stepper.c ****     Delay between each step for the rpm and step:
  67:src/stepper.c ****     60000/(RPM*STEP) = x, where x is the time between each step
  68:src/stepper.c **** 
  69:src/stepper.c ****     */
  70:src/stepper.c ****     int time_calculate = 60000 / (stepper_rpm[num-1] * steps);
 187               		.loc 1 70 5 is_stmt 1 view .LVU20
 188               		.loc 1 70 46 is_stmt 0 view .LVU21
 189 0088 842F      		mov r24,r20
 190               	.LVL12:
 191               		.loc 1 70 46 view .LVU22
 192 008a 8150      		subi r24,1
 193 008c 990B      		sbc r25,r25
 194 008e FC01      		movw r30,r24
 195 0090 EE0F      		lsl r30
 196 0092 FF1F      		rol r31
 197 0094 E050      		subi r30,lo8(-(stepper_rpm))
 198 0096 F040      		sbci r31,hi8(-(stepper_rpm))
 199               		.loc 1 70 54 view .LVU23
 200 0098 8081      		ld r24,Z
 201 009a 9181      		ldd r25,Z+1
 202 009c 089F      		mul r16,r24
 203 009e 9001      		movw r18,r0
 204 00a0 099F      		mul r16,r25
 205 00a2 300D      		add r19,r0
 206 00a4 189F      		mul r17,r24
 207 00a6 300D      		add r19,r0
 208 00a8 1124      		clr r1
 209 00aa 50E0      		ldi r21,0
 210 00ac 40E0      		ldi r20,0
 211               	.LVL13:
 212               		.loc 1 70 32 view .LVU24
 213 00ae 60E6      		ldi r22,lo8(96)
 214 00b0 7AEE      		ldi r23,lo8(-22)
 215 00b2 80E0      		ldi r24,0
 216 00b4 90E0      		ldi r25,0
 217               	.LVL14:
 218               		.loc 1 70 32 view .LVU25
 219 00b6 0E94 0000 		call __divmodsi4
 220 00ba 4901      		movw r8,r18
 221               	.LVL15:
  71:src/stepper.c **** 
  72:src/stepper.c ****     gpio_write_pin(rtn_dir(num), dir);
 222               		.loc 1 72 5 is_stmt 1 view .LVU26
 223 00bc 61E0      		ldi r22,lo8(1)
 224 00be D111      		cpse r29,__zero_reg__
 225 00c0 00C0      		rjmp .L8
 226 00c2 60E0      		ldi r22,0
 227               	.L8:
 228 00c4 83E1      		ldi r24,lo8(19)
 229 00c6 C130      		cpi r28,lo8(1)
 230 00c8 01F4      		brne .L9
 231 00ca 80E1      		ldi r24,lo8(16)
 232               	.L9:
 233               		.loc 1 72 5 is_stmt 0 discriminator 4 view .LVU27
 234 00cc 0E94 0000 		call gpio_write_pin
 235               	.LVL16:
  73:src/stepper.c **** 
  74:src/stepper.c ****     for(unsigned int i=0; i<steps; i++) {
 236               		.loc 1 74 5 is_stmt 1 discriminator 4 view .LVU28
 237               	.LBB2:
 238               		.loc 1 74 9 discriminator 4 view .LVU29
 239               		.loc 1 74 9 is_stmt 0 discriminator 4 view .LVU30
 240 00d0 21E1      		ldi r18,lo8(17)
 241 00d2 D22E      		mov r13,r18
 242 00d4 C130      		cpi r28,lo8(1)
 243 00d6 01F0      		breq .L11
 244 00d8 94E1      		ldi r25,lo8(20)
 245 00da D92E      		mov r13,r25
 246               	.L11:
  75:src/stepper.c ****         gpio_write_pin(rtn_step(num), ON);
  76:src/stepper.c ****         delay(time_calculate/2);
 247               		.loc 1 76 9 discriminator 4 view .LVU31
 248 00dc E401      		movw r28,r8
 249               	.LVL17:
 250               		.loc 1 76 9 discriminator 4 view .LVU32
 251 00de 97FC      		sbrc r9,7
 252 00e0 2196      		adiw r28,1
 253               	.L12:
 254 00e2 D595      		asr r29
 255 00e4 C795      		ror r28
  74:src/stepper.c ****         gpio_write_pin(rtn_step(num), ON);
 256               		.loc 1 74 22 discriminator 4 view .LVU33
 257 00e6 F12C      		mov r15,__zero_reg__
 258 00e8 E12C      		mov r14,__zero_reg__
 259               	.LVL18:
 260               	.L13:
  74:src/stepper.c ****         gpio_write_pin(rtn_step(num), ON);
 261               		.loc 1 74 5 discriminator 2 view .LVU34
 262 00ea E016      		cp r14,r16
 263 00ec F106      		cpc r15,r17
 264 00ee 01F4      		brne .L14
 265               	/* epilogue start */
 266               	.LBE2:
  77:src/stepper.c ****         gpio_write_pin(rtn_step(num), OFF);
  78:src/stepper.c ****         delay(time_calculate/2);
  79:src/stepper.c ****     }
  80:src/stepper.c **** } // end of move_stepper()
 267               		.loc 1 80 1 view .LVU35
 268 00f0 DF91      		pop r29
 269               	.LVL19:
 270               		.loc 1 80 1 view .LVU36
 271 00f2 CF91      		pop r28
 272 00f4 1F91      		pop r17
 273 00f6 0F91      		pop r16
 274               	.LVL20:
 275               		.loc 1 80 1 view .LVU37
 276 00f8 FF90      		pop r15
 277 00fa EF90      		pop r14
 278               	.LVL21:
 279               		.loc 1 80 1 view .LVU38
 280 00fc DF90      		pop r13
 281 00fe BF90      		pop r11
 282 0100 AF90      		pop r10
 283 0102 9F90      		pop r9
 284 0104 8F90      		pop r8
 285               	.LVL22:
 286               		.loc 1 80 1 view .LVU39
 287 0106 0895      		ret
 288               	.LVL23:
 289               	.L14:
 290               	.LBB3:
  75:src/stepper.c ****         delay(time_calculate/2);
 291               		.loc 1 75 9 is_stmt 1 discriminator 4 view .LVU40
 292 0108 61E0      		ldi r22,lo8(1)
 293 010a 8D2D      		mov r24,r13
 294 010c 0E94 0000 		call gpio_write_pin
 295               	.LVL24:
  76:src/stepper.c ****         gpio_write_pin(rtn_step(num), OFF);
 296               		.loc 1 76 9 discriminator 4 view .LVU41
 297 0110 CE01      		movw r24,r28
 298 0112 0E94 0000 		call delay
 299               	.LVL25:
  77:src/stepper.c ****         gpio_write_pin(rtn_step(num), OFF);
 300               		.loc 1 77 9 discriminator 4 view .LVU42
 301 0116 60E0      		ldi r22,0
 302 0118 8D2D      		mov r24,r13
 303 011a 0E94 0000 		call gpio_write_pin
 304               	.LVL26:
  78:src/stepper.c ****     }
 305               		.loc 1 78 9 discriminator 4 view .LVU43
 306 011e CE01      		movw r24,r28
 307 0120 0E94 0000 		call delay
 308               	.LVL27:
  74:src/stepper.c ****         gpio_write_pin(rtn_step(num), ON);
 309               		.loc 1 74 37 is_stmt 0 discriminator 4 view .LVU44
 310 0124 9FEF      		ldi r25,-1
 311 0126 E91A      		sub r14,r25
 312 0128 F90A      		sbc r15,r25
 313               	.LVL28:
  74:src/stepper.c ****         gpio_write_pin(rtn_step(num), ON);
 314               		.loc 1 74 37 discriminator 4 view .LVU45
 315 012a 00C0      		rjmp .L13
 316               	.LBE3:
 317               		.cfi_endproc
 318               	.LFE25:
 320               		.data
 323               	stepper_rpm:
 324 0000 3C00      		.word	60
 325 0002 3C00      		.word	60
 326               		.text
 327               	.Letext0:
 328               		.file 2 "/usr/local/Cellar/avr-gcc/8.3.0/avr/include/stdint.h"
 329               		.file 3 "/usr/local/Cellar/avr-gcc/8.3.0/lib/avr-gcc/8/gcc/avr/8.3.0/include/stddef.h"
 330               		.file 4 "/usr/local/Cellar/avr-gcc/8.3.0/avr/include/stdio.h"
 331               		.file 5 "/usr/local/Cellar/avr-gcc/8.3.0/avr/include/stdlib.h"
 332               		.file 6 "src/gpio.h"
 333               		.file 7 "src/system.h"